; Function Attrs: nounwind uwtable
define hidden void @debugMonitorEnter(ptr noundef %0) local_unnamed_addr #0 {
  %2 = load ptr, ptr @gdata, align 8
  %3 = getelementptr inbounds i8, ptr %2, i64 528
  %4 = load i32, ptr %3, align 8
  %5 = and i32 %4, 4
  %.not = icmp eq i32 %5, 0
  br i1 %.not, label %7, label %6

6:                                                ; preds = %1
  tail call void @log_message_begin(ptr noundef nonnull @.str.45, ptr noundef nonnull @.str.4, i32 noundef 1010) #14
  tail call void (ptr, ...) @log_message_end(ptr noundef nonnull @.str.9, ptr noundef nonnull @.str.80) #14
  %.pre = load ptr, ptr @gdata, align 8
  br label %7

7:                                                ; preds = %1, %6
  %8 = phi ptr [ %2, %1 ], [ %.pre, %6 ]
  %9 = load ptr, ptr %8, align 8
  %10 = load ptr, ptr %9, align 8
  %11 = getelementptr inbounds i8, ptr %10, i64 256
  %12 = load ptr, ptr %11, align 8
  %13 = tail call i32 %12(ptr noundef nonnull %9, ptr noundef %0) #14
  switch i32 %13, label %20 [
    i32 112, label %14
    i32 0, label %ignore_vm_death.exit.thread
  ]

14:                                               ; preds = %7
  %15 = load ptr, ptr @gdata, align 8
  %16 = getelementptr inbounds i8, ptr %15, i64 528
  %17 = load i32, ptr %16, align 8
  %18 = and i32 %17, 8
  %.not.i = icmp eq i32 %18, 0
  br i1 %.not.i, label %ignore_vm_death.exit.thread, label %19

19:                                               ; preds = %14
  tail call void @log_message_begin(ptr noundef nonnull @.str.72, ptr noundef nonnull @.str.4, i32 noundef 1000) #14
  tail call void (ptr, ...) @log_message_end(ptr noundef nonnull @.str.161) #14
  br label %ignore_vm_death.exit.thread

20:                                               ; preds = %7
  %21 = load ptr, ptr @stderr, align 8
  %22 = tail call ptr @jvmtiErrorText(i32 noundef %13) #14
  tail call void (ptr, ptr, ptr, ptr, ...) @print_message(ptr noundef %21, ptr noundef nonnull @.str, ptr noundef nonnull @.str.1, ptr noundef nonnull @.str.2, ptr noundef %22, i32 noundef %13, ptr noundef nonnull @.str.81, ptr noundef nonnull @.str.4, i32 noundef 1014) #14
  tail call void @debugInit_exit(i32 noundef %13, ptr noundef nonnull @.str.81) #14
  br label %ignore_vm_death.exit.thread

ignore_vm_death.exit.thread:                      ; preds = %7, %19, %14, %20
  ret void
}